target datalayout = "e-m:e-p270:32:32-p271:32:32-p272:64:64-i64:64-i128:128-f80:128-n8:16:32:64-S128"
target triple = "x86_64-pc-linux-gnu"

; Function Attrs: mustprogress nounwind uwtable
define noundef i32 @_ZN10duckdb_hll10sdsull2strEPcy(ptr noundef %0, i64 noundef %1) #9 {
  %3 = alloca ptr, align 8
  %4 = alloca i64, align 8
  %5 = alloca ptr, align 8
  %6 = alloca i8, align 1
  %7 = alloca i64, align 8
  store ptr %0, ptr %3, align 8, !tbaa !12
  store i64 %1, ptr %4, align 8, !tbaa !35
  call void @llvm.lifetime.start.p0(i64 8, ptr %5) #11
  call void @llvm.lifetime.start.p0(i64 1, ptr %6) #11
  call void @llvm.lifetime.start.p0(i64 8, ptr %7) #11
  %8 = load ptr, ptr %3, align 8, !tbaa !12
  store ptr %8, ptr %5, align 8, !tbaa !12
  br label %9

9:                                                ; preds = %18, %2
  %10 = load i64, ptr %4, align 8, !tbaa !35
  %11 = urem i64 %10, 10
  %12 = add i64 48, %11
  %13 = trunc i64 %12 to i8
  %14 = load ptr, ptr %5, align 8, !tbaa !12
  %15 = getelementptr inbounds nuw i8, ptr %14, i32 1
  store ptr %15, ptr %5, align 8, !tbaa !12
  store i8 %13, ptr %14, align 1, !tbaa !9
  %16 = load i64, ptr %4, align 8, !tbaa !35
  %17 = udiv i64 %16, 10
  store i64 %17, ptr %4, align 8, !tbaa !35
  br label %18

18:                                               ; preds = %9
  %19 = load i64, ptr %4, align 8, !tbaa !35
  %20 = icmp ne i64 %19, 0
  br i1 %20, label %9, label %21, !llvm.loop !40

21:                                               ; preds = %18
  %22 = load ptr, ptr %5, align 8, !tbaa !12
  %23 = load ptr, ptr %3, align 8, !tbaa !12
  %24 = ptrtoint ptr %22 to i64
  %25 = ptrtoint ptr %23 to i64
  %26 = sub i64 %24, %25
  store i64 %26, ptr %7, align 8, !tbaa !7
  %27 = load ptr, ptr %5, align 8, !tbaa !12
  store i8 0, ptr %27, align 1, !tbaa !9
  %28 = load ptr, ptr %5, align 8, !tbaa !12
  %29 = getelementptr inbounds i8, ptr %28, i32 -1
  store ptr %29, ptr %5, align 8, !tbaa !12
  br label %30

30:                                               ; preds = %34, %21
  %31 = load ptr, ptr %3, align 8, !tbaa !12
  %32 = load ptr, ptr %5, align 8, !tbaa !12
  %33 = icmp ult ptr %31, %32
  br i1 %33, label %34, label %46

34:                                               ; preds = %30
  %35 = load ptr, ptr %3, align 8, !tbaa !12
  %36 = load i8, ptr %35, align 1, !tbaa !9
  store i8 %36, ptr %6, align 1, !tbaa !9
  %37 = load ptr, ptr %5, align 8, !tbaa !12
  %38 = load i8, ptr %37, align 1, !tbaa !9
  %39 = load ptr, ptr %3, align 8, !tbaa !12
  store i8 %38, ptr %39, align 1, !tbaa !9
  %40 = load i8, ptr %6, align 1, !tbaa !9
  %41 = load ptr, ptr %5, align 8, !tbaa !12
  store i8 %40, ptr %41, align 1, !tbaa !9
  %42 = load ptr, ptr %3, align 8, !tbaa !12
  %43 = getelementptr inbounds nuw i8, ptr %42, i32 1
  store ptr %43, ptr %3, align 8, !tbaa !12
  %44 = load ptr, ptr %5, align 8, !tbaa !12
  %45 = getelementptr inbounds i8, ptr %44, i32 -1
  store ptr %45, ptr %5, align 8, !tbaa !12
  br label %30, !llvm.loop !41

46:                                               ; preds = %30
  %47 = load i64, ptr %7, align 8, !tbaa !7
  %48 = trunc i64 %47 to i32
  call void @llvm.lifetime.end.p0(i64 8, ptr %7) #11
  call void @llvm.lifetime.end.p0(i64 1, ptr %6) #11
  call void @llvm.lifetime.end.p0(i64 8, ptr %5) #11
  ret i32 %48
}