; Function Attrs: mustprogress nofree norecurse nosync nounwind memory(argmem: readwrite) uwtable
define noundef i32 @_ZN10duckdb_hll10sdsull2strEPcy(ptr noundef %0, i64 noundef %1) local_unnamed_addr #14 {
  br label %3

3:                                                ; preds = %3, %2
  %.019 = phi ptr [ %0, %2 ], [ %7, %3 ]
  %.018 = phi i64 [ %1, %2 ], [ %8, %3 ]
  %4 = urem i64 %.018, 10
  %5 = trunc nuw nsw i64 %4 to i8
  %6 = or disjoint i8 %5, 48
  %7 = getelementptr inbounds nuw i8, ptr %.019, i64 1
  store i8 %6, ptr %.019, align 1, !tbaa !20
  %8 = udiv i64 %.018, 10
  %.not = icmp ult i64 %.018, 10
  br i1 %.not, label %9, label %3, !llvm.loop !24

9:                                                ; preds = %3
  store i8 0, ptr %7, align 1, !tbaa !20
  %10 = icmp ult ptr %0, %.019
  br i1 %10, label %.lr.ph, label %._crit_edge

.lr.ph:                                           ; preds = %9, %.lr.ph
  %.021 = phi ptr [ %13, %.lr.ph ], [ %0, %9 ]
  %.120 = phi ptr [ %14, %.lr.ph ], [ %.019, %9 ]
  %11 = load i8, ptr %.021, align 1, !tbaa !20
  %12 = load i8, ptr %.120, align 1, !tbaa !20
  store i8 %12, ptr %.021, align 1, !tbaa !20
  store i8 %11, ptr %.120, align 1, !tbaa !20
  %13 = getelementptr inbounds nuw i8, ptr %.021, i64 1
  %14 = getelementptr inbounds i8, ptr %.120, i64 -1
  %15 = icmp ult ptr %13, %14
  br i1 %15, label %.lr.ph, label %._crit_edge, !llvm.loop !25

._crit_edge:                                      ; preds = %.lr.ph, %9
  %16 = ptrtoint ptr %7 to i64
  %17 = ptrtoint ptr %0 to i64
  %18 = sub i64 %16, %17
  %19 = trunc i64 %18 to i32
  ret i32 %19
}